; Function Attrs: inlinehint nounwind uwtable
define internal fastcc zeroext i1 @table_tuple_fetch_row_version(ptr noundef %0, ptr noundef %1, ptr noundef %2) unnamed_addr #7 {
  %4 = load i32, ptr @CheckXidAlive, align 4
  %5 = icmp eq i32 %4, 0
  %6 = load i8, ptr @bsysscan, align 1, !range !4
  %7 = trunc nuw i8 %6 to i1
  %.not5 = select i1 %5, i1 true, i1 %7
  br i1 %.not5, label %11, label %8, !prof !12

8:                                                ; preds = %3
  %9 = tail call zeroext i1 @errstart_cold(i32 noundef 21, ptr noundef null) #10
  tail call void @llvm.assume(i1 %9)
  %10 = tail call i32 (ptr, ...) @errmsg_internal(ptr noundef nonnull @.str.47) #9
  tail call void @errfinish(ptr noundef nonnull @.str.48, i32 noundef 1305, ptr noundef nonnull @__func__.table_tuple_fetch_row_version) #9
  unreachable

11:                                               ; preds = %3
  %12 = getelementptr inbounds nuw i8, ptr %0, i64 320
  %13 = load ptr, ptr %12, align 8
  %14 = getelementptr inbounds nuw i8, ptr %13, i64 120
  %15 = load ptr, ptr %14, align 8
  %16 = tail call zeroext i1 %15(ptr noundef %0, ptr noundef %1, ptr noundef nonnull @SnapshotAnyData, ptr noundef %2) #9
  ret i1 %16
}